; Function Attrs: nounwind uwtable
define ptr @l_Lean_Meta_Grind_EMatchTheorems_find(ptr noundef %0, ptr noundef readonly captures(none) %1) local_unnamed_addr #1 {
  %3 = getelementptr inbounds nuw i8, ptr %0, i64 32
  %4 = load ptr, ptr %3, align 8, !tbaa !9
  %5 = ptrtoint ptr %4 to i64
  %6 = and i64 %5, 1
  %.not = icmp eq i64 %6, 0
  br i1 %.not, label %7, label %lean_inc.exit13

7:                                                ; preds = %2
  %.val.i = load i32, ptr %4, align 4, !tbaa !4
  %8 = icmp sgt i32 %.val.i, 0
  br i1 %8, label %9, label %11, !prof !11

9:                                                ; preds = %7
  %10 = add nuw i32 %.val.i, 1
  store i32 %10, ptr %4, align 4, !tbaa !4
  br label %lean_inc.exit13

11:                                               ; preds = %7
  %.not.i16 = icmp eq i32 %.val.i, 0
  br i1 %.not.i16, label %lean_inc.exit13, label %12

12:                                               ; preds = %11
  tail call void @lean_inc_ref_cold(ptr noundef nonnull %4) #9
  br label %lean_inc.exit13

lean_inc.exit13:                                  ; preds = %12, %11, %9, %2
  %13 = ptrtoint ptr %0 to i64
  %14 = and i64 %13, 1
  %.not22 = icmp eq i64 %14, 0
  br i1 %.not22, label %15, label %lean_dec.exit12

15:                                               ; preds = %lean_inc.exit13
  %16 = load i32, ptr %0, align 4, !tbaa !4
  %17 = icmp sgt i32 %16, 1
  br i1 %17, label %18, label %20, !prof !11

18:                                               ; preds = %15
  %19 = add nsw i32 %16, -1
  store i32 %19, ptr %0, align 4, !tbaa !4
  br label %lean_dec.exit12

20:                                               ; preds = %15
  %.not.i = icmp eq i32 %16, 0
  br i1 %.not.i, label %lean_dec.exit12, label %21

21:                                               ; preds = %20
  tail call void @lean_dec_ref_cold(ptr noundef nonnull %0) #9
  br label %lean_dec.exit12

lean_dec.exit12:                                  ; preds = %21, %20, %18, %lean_inc.exit13
  %22 = getelementptr inbounds nuw i8, ptr %1, i64 8
  %23 = load ptr, ptr %22, align 8, !tbaa !9
  %24 = ptrtoint ptr %23 to i64
  %25 = and i64 %24, 1
  %.not.i7.i = icmp eq i64 %25, 0
  br i1 %.not.i7.i, label %26, label %l_Lean_Meta_Grind_Origin_key.exit.i

26:                                               ; preds = %lean_dec.exit12
  %.val.i.i.i = load i32, ptr %23, align 4, !tbaa !4
  %27 = icmp sgt i32 %.val.i.i.i, 0
  br i1 %27, label %28, label %30, !prof !11

28:                                               ; preds = %26
  %29 = add nuw i32 %.val.i.i.i, 1
  store i32 %29, ptr %23, align 4, !tbaa !4
  br label %33

30:                                               ; preds = %26
  %.not.i.i.i = icmp eq i32 %.val.i.i.i, 0
  br i1 %.not.i.i.i, label %33, label %31

31:                                               ; preds = %30
  tail call void @lean_inc_ref_cold(ptr noundef nonnull %23) #9
  br label %33

l_Lean_Meta_Grind_Origin_key.exit.i:              ; preds = %lean_dec.exit12
  %32 = tail call i64 @l_Lean_Name_hash___override(ptr noundef %23) #9
  br label %l_Lean_PersistentHashMap_find_x3f___at_Lean_Meta_Grind_EMatchTheorems_insert___spec__12.exit

33:                                               ; preds = %31, %30, %28
  %34 = tail call i64 @l_Lean_Name_hash___override(ptr noundef nonnull %23) #9
  %35 = load i32, ptr %23, align 4, !tbaa !4
  %36 = icmp sgt i32 %35, 1
  br i1 %36, label %37, label %39, !prof !11

37:                                               ; preds = %33
  %38 = add nsw i32 %35, -1
  store i32 %38, ptr %23, align 4, !tbaa !4
  br label %l_Lean_PersistentHashMap_find_x3f___at_Lean_Meta_Grind_EMatchTheorems_insert___spec__12.exit

39:                                               ; preds = %33
  %.not.i.i = icmp eq i32 %35, 0
  br i1 %.not.i.i, label %l_Lean_PersistentHashMap_find_x3f___at_Lean_Meta_Grind_EMatchTheorems_insert___spec__12.exit, label %40

40:                                               ; preds = %39
  tail call void @lean_dec_ref_cold(ptr noundef nonnull %23) #9
  br label %l_Lean_PersistentHashMap_find_x3f___at_Lean_Meta_Grind_EMatchTheorems_insert___spec__12.exit

l_Lean_PersistentHashMap_find_x3f___at_Lean_Meta_Grind_EMatchTheorems_insert___spec__12.exit: ; preds = %l_Lean_Meta_Grind_Origin_key.exit.i, %37, %39, %40
  %41 = phi i64 [ %32, %l_Lean_Meta_Grind_Origin_key.exit.i ], [ %34, %37 ], [ %34, %39 ], [ %34, %40 ]
  %42 = tail call ptr @l_Lean_PersistentHashMap_findAux___at_Lean_Meta_Grind_EMatchTheorems_insert___spec__13(ptr noundef %4, i64 noundef %41, ptr noundef nonnull readonly %1)
  %43 = ptrtoint ptr %42 to i64
  %44 = and i64 %43, 1
  %.not.i17 = icmp eq i64 %44, 0
  br i1 %.not.i17, label %48, label %45

45:                                               ; preds = %l_Lean_PersistentHashMap_find_x3f___at_Lean_Meta_Grind_EMatchTheorems_insert___spec__12.exit
  %46 = lshr i64 %43, 1
  %47 = trunc i64 %46 to i32
  br label %lean_obj_tag.exit

48:                                               ; preds = %l_Lean_PersistentHashMap_find_x3f___at_Lean_Meta_Grind_EMatchTheorems_insert___spec__12.exit
  %49 = getelementptr i8, ptr %42, i64 4
  %.val.i18 = load i32, ptr %49, align 4
  %50 = lshr i32 %.val.i18, 24
  br label %lean_obj_tag.exit

lean_obj_tag.exit:                                ; preds = %45, %48
  %.0.i = phi i32 [ %47, %45 ], [ %50, %48 ]
  %51 = icmp eq i32 %.0.i, 0
  br i1 %51, label %lean_dec.exit, label %52

52:                                               ; preds = %lean_obj_tag.exit
  %53 = getelementptr inbounds nuw i8, ptr %42, i64 8
  %54 = load ptr, ptr %53, align 8, !tbaa !9
  %55 = ptrtoint ptr %54 to i64
  %56 = and i64 %55, 1
  %.not23 = icmp eq i64 %56, 0
  br i1 %.not23, label %57, label %lean_inc.exit

57:                                               ; preds = %52
  %.val.i19 = load i32, ptr %54, align 4, !tbaa !4
  %58 = icmp sgt i32 %.val.i19, 0
  br i1 %58, label %59, label %61, !prof !11

59:                                               ; preds = %57
  %60 = add nuw i32 %.val.i19, 1
  store i32 %60, ptr %54, align 4, !tbaa !4
  br label %lean_inc.exit

61:                                               ; preds = %57
  %.not.i20 = icmp eq i32 %.val.i19, 0
  br i1 %.not.i20, label %lean_inc.exit, label %62

62:                                               ; preds = %61
  tail call void @lean_inc_ref_cold(ptr noundef nonnull %54) #9
  br label %lean_inc.exit

lean_inc.exit:                                    ; preds = %62, %61, %59, %52
  br i1 %.not.i17, label %63, label %lean_dec.exit

63:                                               ; preds = %lean_inc.exit
  %64 = load i32, ptr %42, align 4, !tbaa !4
  %65 = icmp sgt i32 %64, 1
  br i1 %65, label %66, label %68, !prof !11

66:                                               ; preds = %63
  %67 = add nsw i32 %64, -1
  store i32 %67, ptr %42, align 4, !tbaa !4
  br label %lean_dec.exit

68:                                               ; preds = %63
  %.not.i14 = icmp eq i32 %64, 0
  br i1 %.not.i14, label %lean_dec.exit, label %69

69:                                               ; preds = %68
  tail call void @lean_dec_ref_cold(ptr noundef nonnull %42) #9
  br label %lean_dec.exit

lean_dec.exit:                                    ; preds = %lean_inc.exit, %66, %68, %69, %lean_obj_tag.exit
  %.0 = phi ptr [ inttoptr (i64 1 to ptr), %lean_obj_tag.exit ], [ %54, %69 ], [ %54, %68 ], [ %54, %66 ], [ %54, %lean_inc.exit ]
  ret ptr %.0
}